; Function Attrs: mustprogress uwtable
define internal noundef ptr @"_ZZN4pkpy12add_module_cEPNS_2VMEEN4$_928__invokeES1_PNS_8PyObjectES4_"(ptr noundef %0, ptr nocapture noundef readonly %1, ptr noundef %2) #3 align 2 {
  %4 = alloca ptr, align 8
  call void @llvm.lifetime.start.p0(i64 8, ptr nonnull %4)
  %5 = getelementptr inbounds i8, ptr %1, i64 24
  %6 = tail call noundef i64 @_ZN4pkpy18_py_cast__internalIlLb1EEET_PNS_2VMEPNS_8PyObjectE(ptr noundef %0, ptr noundef %2)
  %7 = load ptr, ptr %5, align 8
  %8 = getelementptr inbounds i8, ptr %0, i64 16
  %9 = getelementptr inbounds i8, ptr %1, i64 10
  %.sroa.0.0.copyload.i = load i16, ptr %9, align 2
  %10 = getelementptr inbounds float, ptr %7, i64 %6
  store ptr %10, ptr %4, align 8
  %11 = call noundef ptr @_ZN4pkpy11ManagedHeap5gcnewINS_5VoidPEJPfEEEPNS_8PyObjectENS_4TypeEDpOT0_(ptr noundef nonnull align 8 dereferenceable(84) %8, i16 %.sroa.0.0.copyload.i, ptr noundef nonnull align 8 dereferenceable(8) %4)
  call void @llvm.lifetime.end.p0(i64 8, ptr nonnull %4)
  ret ptr %11
}